; Function Attrs: mustprogress uwtable
define void @_ZNK3gmx23KeyValueTreeTransformer11mappedPathsEv(ptr dead_on_unwind noalias writable sret(%"class.std::vector.146") align 8 %0, ptr nocapture noundef nonnull readonly align 8 dereferenceable(8) %1) local_unnamed_addr #3 align 2 personality ptr @__gxx_personality_v0 {
  %3 = alloca %"class.gmx::KeyValueTreePath", align 8
  tail call void @llvm.memset.p0.i64(ptr noundef nonnull align 8 dereferenceable(24) %0, i8 0, i64 24, i1 false)
  %4 = load ptr, ptr %1, align 8
  %5 = load ptr, ptr %4, align 8
  %.not = icmp eq ptr %5, null
  br i1 %.not, label %_ZN3gmx16KeyValueTreePathD2Ev.exit, label %6

6:                                                ; preds = %2
  call void @llvm.memset.p0.i64(ptr noundef nonnull align 8 dereferenceable(24) %3, i8 0, i64 24, i1 false)
  invoke void @_ZNK3gmx8internal27KeyValueTreeTransformerImpl4Rule18collectMappedPathsERKNS_16KeyValueTreePathEPSt6vectorIS3_SaIS3_EE(ptr noundef nonnull align 8 dereferenceable(144) %5, ptr noundef nonnull align 8 dereferenceable(24) %3, ptr noundef nonnull %0)
          to label %7 unwind label %14

7:                                                ; preds = %6
  %8 = load ptr, ptr %3, align 8
  %9 = getelementptr inbounds i8, ptr %3, i64 8
  %10 = load ptr, ptr %9, align 8
  %.not4.i.i.i.i.i = icmp eq ptr %8, %10
  br i1 %.not4.i.i.i.i.i, label %_ZSt8_DestroyIPNSt7__cxx1112basic_stringIcSt11char_traitsIcESaIcEEES5_EvT_S7_RSaIT0_E.exit.i.i, label %.lr.ph.i.i.i.i.i

.lr.ph.i.i.i.i.i:                                 ; preds = %7, %.lr.ph.i.i.i.i.i
  %.05.i.i.i.i.i = phi ptr [ %11, %.lr.ph.i.i.i.i.i ], [ %8, %7 ]
  call void @_ZNSt7__cxx1112basic_stringIcSt11char_traitsIcESaIcEED1Ev(ptr noundef nonnull align 8 dereferenceable(32) %.05.i.i.i.i.i) #26
  %11 = getelementptr inbounds i8, ptr %.05.i.i.i.i.i, i64 32
  %.not.i.i.i.i.i = icmp eq ptr %11, %10
  br i1 %.not.i.i.i.i.i, label %_ZSt8_DestroyIPNSt7__cxx1112basic_stringIcSt11char_traitsIcESaIcEEES5_EvT_S7_RSaIT0_E.exitthread-pre-split.i.i, label %.lr.ph.i.i.i.i.i, !llvm.loop !5

_ZSt8_DestroyIPNSt7__cxx1112basic_stringIcSt11char_traitsIcESaIcEEES5_EvT_S7_RSaIT0_E.exitthread-pre-split.i.i: ; preds = %.lr.ph.i.i.i.i.i
  %.pr.i.i = load ptr, ptr %3, align 8
  br label %_ZSt8_DestroyIPNSt7__cxx1112basic_stringIcSt11char_traitsIcESaIcEEES5_EvT_S7_RSaIT0_E.exit.i.i

_ZSt8_DestroyIPNSt7__cxx1112basic_stringIcSt11char_traitsIcESaIcEEES5_EvT_S7_RSaIT0_E.exit.i.i: ; preds = %_ZSt8_DestroyIPNSt7__cxx1112basic_stringIcSt11char_traitsIcESaIcEEES5_EvT_S7_RSaIT0_E.exitthread-pre-split.i.i, %7
  %12 = phi ptr [ %.pr.i.i, %_ZSt8_DestroyIPNSt7__cxx1112basic_stringIcSt11char_traitsIcESaIcEEES5_EvT_S7_RSaIT0_E.exitthread-pre-split.i.i ], [ %8, %7 ]
  %.not.i.i.i.i = icmp eq ptr %12, null
  br i1 %.not.i.i.i.i, label %_ZN3gmx16KeyValueTreePathD2Ev.exit, label %13

13:                                               ; preds = %_ZSt8_DestroyIPNSt7__cxx1112basic_stringIcSt11char_traitsIcESaIcEEES5_EvT_S7_RSaIT0_E.exit.i.i
  call void @_ZdlPv(ptr noundef nonnull %12) #25
  br label %_ZN3gmx16KeyValueTreePathD2Ev.exit

14:                                               ; preds = %6
  %15 = landingpad { ptr, i32 }
          cleanup
  call void @_ZN3gmx16KeyValueTreePathD2Ev(ptr noundef nonnull align 8 dereferenceable(24) %3) #26
  call void @_ZNSt6vectorIN3gmx16KeyValueTreePathESaIS1_EED2Ev(ptr noundef nonnull align 8 dereferenceable(24) %0) #26
  resume { ptr, i32 } %15

_ZN3gmx16KeyValueTreePathD2Ev.exit:               ; preds = %13, %_ZSt8_DestroyIPNSt7__cxx1112basic_stringIcSt11char_traitsIcESaIcEEES5_EvT_S7_RSaIT0_E.exit.i.i, %2
  ret void
}